; Function Attrs: nounwind uwtable
define noalias noundef ptr @Abc_FrameMiniAigReadCoArrivals(ptr noundef %0) local_unnamed_addr #4 {
  %2 = icmp eq ptr %0, null
  br i1 %2, label %3, label %4

3:                                                ; preds = %1
  %puts13 = tail call i32 @puts(ptr nonnull dereferenceable(1) @str.12)
  br label %23

4:                                                ; preds = %1
  %5 = tail call ptr @Abc_FrameReadGia(ptr noundef nonnull %0) #27
  %6 = icmp eq ptr %5, null
  br i1 %6, label %7, label %8

7:                                                ; preds = %4
  %puts12 = tail call i32 @puts(ptr nonnull dereferenceable(1) @str.13)
  br label %23

8:                                                ; preds = %4
  %9 = getelementptr inbounds nuw i8, ptr %5, i64 568
  %10 = load ptr, ptr %9, align 8, !tbaa !288
  %11 = icmp eq ptr %10, null
  br i1 %11, label %12, label %13

12:                                               ; preds = %8
  %puts = tail call i32 @puts(ptr nonnull dereferenceable(1) @str.9)
  br label %23

13:                                               ; preds = %8
  %14 = getelementptr inbounds nuw i8, ptr %10, i64 4
  %15 = load i32, ptr %14, align 4, !tbaa !54
  %.not.i = icmp eq i32 %15, 0
  br i1 %.not.i, label %Vec_IntFree.exit, label %16

16:                                               ; preds = %13
  %17 = sext i32 %15 to i64
  %18 = shl nsw i64 %17, 2
  %19 = tail call noalias ptr @malloc(i64 noundef %18) #29
  br label %Vec_IntFree.exit

Vec_IntFree.exit:                                 ; preds = %16, %13
  %.pre-phi12.i = phi i64 [ %18, %16 ], [ 0, %13 ]
  %20 = phi ptr [ %19, %16 ], [ null, %13 ]
  %21 = getelementptr inbounds nuw i8, ptr %10, i64 8
  %22 = load ptr, ptr %21, align 8, !tbaa !47
  tail call void @llvm.memcpy.p0.p0.i64(ptr align 4 %20, ptr align 4 %22, i64 %.pre-phi12.i, i1 false)
  br label %23

23:                                               ; preds = %Vec_IntFree.exit, %12, %7, %3
  %.0 = phi ptr [ null, %3 ], [ null, %7 ], [ null, %12 ], [ %20, %Vec_IntFree.exit ]
  ret ptr %.0
}